target datalayout = "e-m:e-p270:32:32-p271:32:32-p272:64:64-i64:64-i128:128-f80:128-n8:16:32:64-S128"
target triple = "x86_64-pc-linux-gnu"

%struct.rsa_st = type { i32, ptr, i32, ptr, ptr, ptr, ptr, ptr, ptr, ptr, ptr, ptr, ptr, %struct.rsa_pss_params_30_st, ptr, ptr, %struct.crypto_ex_data_st, %struct.CRYPTO_REF_COUNT, i32, ptr, ptr, ptr, ptr, ptr, ptr, i32 }
%struct.rsa_pss_params_30_st = type { i32, %struct.anon, i32, i32 }
%struct.anon = type { i32, i32 }
%struct.crypto_ex_data_st = type { ptr, ptr }
%struct.CRYPTO_REF_COUNT = type { i32 }

; Function Attrs: nounwind uwtable
define i32 @ossl_rsa_sp800_56b_check_private(ptr noundef %0) #0 {
  %2 = alloca i32, align 4
  %3 = alloca ptr, align 8
  store ptr %0, ptr %3, align 8, !tbaa !3
  %4 = load ptr, ptr %3, align 8, !tbaa !3
  %5 = getelementptr inbounds nuw %struct.rsa_st, ptr %4, i32 0, i32 7
  %6 = load ptr, ptr %5, align 8, !tbaa !33
  %7 = icmp eq ptr %6, null
  br i1 %7, label %13, label %8

8:                                                ; preds = %1
  %9 = load ptr, ptr %3, align 8, !tbaa !3
  %10 = getelementptr inbounds nuw %struct.rsa_st, ptr %9, i32 0, i32 5
  %11 = load ptr, ptr %10, align 8, !tbaa !34
  %12 = icmp eq ptr %11, null
  br i1 %12, label %13, label %14

13:                                               ; preds = %8, %1
  store i32 0, ptr %2, align 4
  br label %33

14:                                               ; preds = %8
  %15 = load ptr, ptr %3, align 8, !tbaa !3
  %16 = getelementptr inbounds nuw %struct.rsa_st, ptr %15, i32 0, i32 7
  %17 = load ptr, ptr %16, align 8, !tbaa !33
  %18 = call ptr @BN_value_one()
  %19 = call i32 @BN_cmp(ptr noundef %17, ptr noundef %18)
  %20 = icmp sge i32 %19, 0
  br i1 %20, label %21, label %30

21:                                               ; preds = %14
  %22 = load ptr, ptr %3, align 8, !tbaa !3
  %23 = getelementptr inbounds nuw %struct.rsa_st, ptr %22, i32 0, i32 7
  %24 = load ptr, ptr %23, align 8, !tbaa !33
  %25 = load ptr, ptr %3, align 8, !tbaa !3
  %26 = getelementptr inbounds nuw %struct.rsa_st, ptr %25, i32 0, i32 5
  %27 = load ptr, ptr %26, align 8, !tbaa !34
  %28 = call i32 @BN_cmp(ptr noundef %24, ptr noundef %27)
  %29 = icmp slt i32 %28, 0
  br label %30

30:                                               ; preds = %21, %14
  %31 = phi i1 [ false, %14 ], [ %29, %21 ]
  %32 = zext i1 %31 to i32
  store i32 %32, ptr %2, align 4
  br label %33

33:                                               ; preds = %30, %13
  %34 = load i32, ptr %2, align 4
  ret i32 %34
}