; Function Attrs: nounwind uwtable
define range(i32 0, 2) i32 @ossl_rsa_sp800_56b_check_private(ptr noundef readonly captures(none) %0) local_unnamed_addr #0 {
  %2 = getelementptr inbounds nuw i8, ptr %0, i64 56
  %3 = load ptr, ptr %2, align 8, !tbaa !27
  %4 = icmp eq ptr %3, null
  br i1 %4, label %17, label %5

5:                                                ; preds = %1
  %6 = getelementptr inbounds nuw i8, ptr %0, i64 40
  %7 = load ptr, ptr %6, align 8, !tbaa !28
  %8 = icmp eq ptr %7, null
  br i1 %8, label %17, label %9

9:                                                ; preds = %5
  %10 = tail call ptr @BN_value_one() #3
  %11 = tail call i32 @BN_cmp(ptr noundef nonnull %3, ptr noundef %10) #3
  %12 = icmp sgt i32 %11, -1
  br i1 %12, label %13, label %17

13:                                               ; preds = %9
  %14 = load ptr, ptr %2, align 8, !tbaa !27
  %15 = load ptr, ptr %6, align 8, !tbaa !28
  %16 = tail call i32 @BN_cmp(ptr noundef %14, ptr noundef %15) #3
  %.lobit = lshr i32 %16, 31
  br label %17

17:                                               ; preds = %9, %13, %1, %5
  %.0 = phi i32 [ 0, %5 ], [ 0, %1 ], [ 0, %9 ], [ %.lobit, %13 ]
  ret i32 %.0
}